; Listing generated by Microsoft (R) Optimizing Compiler Version 19.41.34120.0 

	TITLE	C:\Users\Administrator\Desktop\c++code\test24_10_2\test24_10_2\Debug\Math.obj
	.686P
	.XMM
	include listing.inc
	.model	flat

INCLUDELIB MSVCRTD
INCLUDELIB OLDNAMES

msvcjmc	SEGMENT
__68D132EB_concurrencysal@h DB 01H
__4DC47379_sal@h DB 01H
__B6ADDB23_vadefs@h DB 01H
__A2A1025A_vcruntime@h DB 01H
__467C4747_xkeycheck@h DB 01H
__4FC715A5_yvals_core@h DB 01H
__ADB5D61E_corecrt@h DB 01H
__8B059D87_float@h DB 01H
__6F903AFB_cfloat DB 01H
__70D69B7A_limits@h DB 01H
__2E6DAE0D_climits DB 01H
__72E6C6A2_vcruntime_new@h DB 01H
__D36623B7_vcruntime_new_debug@h DB 01H
__42D43824_crtdbg@h DB 01H
__BB79C343_crtdefs@h DB 01H
__F3AEDF63_use_ansi@h DB 01H
__1CC23A40_yvals@h DB 01H
__50A4683D_corecrt_math@h DB 01H
__7E50E32A_math@h DB 01H
__5417E7B9_corecrt_malloc@h DB 01H
__C27C6C20_stddef@h DB 01H
__ECA48AD7_corecrt_search@h DB 01H
__B92C5D4B_corecrt_wstdlib@h DB 01H
__BFD33085_stdlib@h DB 01H
__AA828CFF_cstdlib DB 01H
__08A0ED2A_xtr1common DB 01H
__0EF3BC42_intrin0@inl@h DB 01H
__A2547A48_intrin0@h DB 01H
__2F7E7DCE_cmath DB 01H
__AA7EA578_corecrt_stdio_config@h DB 01H
__BAA92A32_corecrt_wstdio@h DB 01H
__F371FB77_stdio@h DB 01H
__1CD4F17C_cstdio DB 01H
__5351EB05_errno@h DB 01H
__B2A17AAC_vcruntime_string@h DB 01H
__3F294305_corecrt_memcpy_s@h DB 01H
__9F66C33B_corecrt_memory@h DB 01H
__3F5FC9EF_corecrt_wstring@h DB 01H
__39A0A421_string@h DB 01H
__E610241F_cstring DB 01H
__FED65C05_corecrt_wconio@h DB 01H
__6581780C_corecrt_wctype@h DB 01H
__66D22426_corecrt_wdirect@h DB 01H
__46F792E3_corecrt_share@h DB 01H
__6712E663_corecrt_wio@h DB 01H
__417F06D9_corecrt_wprocess@h DB 01H
__FEA67818_corecrt_wtime@h DB 01H
__9B780B52_types@h DB 01H
__9CB728A0_stat@h DB 01H
__0D57188A_wchar@h DB 01H
__865F272F_cwchar DB 01H
__C59FA219_iosfwd DB 01H
__0F495652_cstddef DB 01H
__721744D8_initializer_list DB 01H
__CEA0B545_stdint@h DB 01H
__17DC6D82_cstdint DB 01H
__08D5818C_type_traits DB 01H
__9D8F0974_utility DB 01H
__330E7A06___msvc_iter_core@hpp DB 01H
__A278CDB8_xutility DB 01H
__B3D47AF8_iterator DB 01H
__C50AE3AF_share@h DB 01H
__7A3A8378___msvc_system_error_abi@hpp DB 01H
__81F58587_cerrno DB 01H
__2BFE1773_malloc@h DB 01H
__35CB0EB8_corecrt_terminate@h DB 01H
__5141DBE6_eh@h DB 01H
__DB8826E5_vcruntime_exception@h DB 01H
__7326ADD5_exception DB 01H
__04784017___msvc_sanitizer_annotate_container@hpp DB 01H
__3D3FEF16___msvc_string_view@hpp DB 01H
__0976779F_limits DB 01H
__3497A4A5_new DB 01H
__792A2103_xatomic@h DB 01H
__F71A6AB7_xmemory DB 01H
__83C9EC2B_xstring DB 01H
__FA689788_stdexcept DB 01H
__0C5FCBF5_xcall_once@h DB 01H
__B4572F4F_xerrc@h DB 01H
__B469EC35___msvc_threads_core@hpp DB 01H
__4F3070FE_time@h DB 01H
__E9CDE1C6_ctime DB 01H
__14BC2EF9_xtimec@h DB 01H
__92E0E8D0_xthreads@h DB 01H
__62432B5D_atomic DB 01H
__B302D9D5_system_error DB 01H
__27E09C99_vcruntime_typeinfo@h DB 01H
__D2A73EA1_typeinfo DB 01H
__B5D87B11_memory DB 01H
__999D2C1E_xfacet DB 01H
__1C984816___msvc_xlocinfo_types@hpp DB 01H
__2C59A949_ctype@h DB 01H
__131F16DB_cctype DB 01H
__A895C988_locale@h DB 01H
__392E502E_clocale DB 01H
__CD2EDD69_xlocinfo DB 01H
__5CF7981A_xlocale DB 01H
__F4CBAA7A_xiosbase DB 01H
__F8C82F34_streambuf DB 01H
__C270FE0D_xlocnum DB 01H
__CC5A9EB3_ios DB 01H
__4FE742DE_ostream DB 01H
__2C3777E4_istream DB 01H
__C001B7A7_iostream DB 01H
__20199A3E_log@h DB 01H
__7DF6BCF1_Math@cpp DB 01H
msvcjmc	ENDS
PUBLIC	?__empty_global_delete@@YAXPAX@Z		; __empty_global_delete
PUBLIC	?__empty_global_delete@@YAXPAXI@Z		; __empty_global_delete
PUBLIC	?Multiply@@YAHHH@Z				; Multiply
PUBLIC	_main
PUBLIC	??$endl@DU?$char_traits@D@std@@@std@@YAAAV?$basic_ostream@DU?$char_traits@D@std@@@0@AAV10@@Z ; std::endl<char,std::char_traits<char> >
PUBLIC	__JustMyCode_Default
PUBLIC	??_C@_08EOBDLMOI@Multiply@			; `string'
EXTRN	__imp_?widen@?$basic_ios@DU?$char_traits@D@std@@@std@@QBEDD@Z:PROC
EXTRN	__imp_??6?$basic_ostream@DU?$char_traits@D@std@@@std@@QAEAAV01@P6AAAV01@AAV01@@Z@Z:PROC
EXTRN	__imp_??6?$basic_ostream@DU?$char_traits@D@std@@@std@@QAEAAV01@H@Z:PROC
EXTRN	__imp_??6?$basic_ostream@DU?$char_traits@D@std@@@std@@QAEAAV01@I@Z:PROC
EXTRN	__imp_?put@?$basic_ostream@DU?$char_traits@D@std@@@std@@QAEAAV12@D@Z:PROC
EXTRN	__imp_?flush@?$basic_ostream@DU?$char_traits@D@std@@@std@@QAEAAV12@XZ:PROC
EXTRN	__imp_?get@?$basic_istream@DU?$char_traits@D@std@@@std@@QAEHXZ:PROC
EXTRN	?log@@YAXPBD@Z:PROC				; log
EXTRN	@__CheckForDebuggerJustMyCode@4:PROC
EXTRN	__RTC_CheckEsp:PROC
EXTRN	__RTC_InitBase:PROC
EXTRN	__RTC_Shutdown:PROC
EXTRN	__imp_?cin@std@@3V?$basic_istream@DU?$char_traits@D@std@@@1@A:BYTE
EXTRN	__imp_?cout@std@@3V?$basic_ostream@DU?$char_traits@D@std@@@1@A:BYTE
;	COMDAT rtc$TMZ
rtc$TMZ	SEGMENT
__RTC_Shutdown.rtc$TMZ DD FLAT:__RTC_Shutdown
rtc$TMZ	ENDS
;	COMDAT rtc$IMZ
rtc$IMZ	SEGMENT
__RTC_InitBase.rtc$IMZ DD FLAT:__RTC_InitBase
rtc$IMZ	ENDS
;	COMDAT ??_C@_08EOBDLMOI@Multiply@
CONST	SEGMENT
??_C@_08EOBDLMOI@Multiply@ DB 'Multiply', 00H		; `string'
CONST	ENDS
; Function compile flags: /Odt
;	COMDAT __JustMyCode_Default
_TEXT	SEGMENT
__JustMyCode_Default PROC				; COMDAT
	push	ebp
	mov	ebp, esp
	pop	ebp
	ret	0
__JustMyCode_Default ENDP
_TEXT	ENDS
; Function compile flags: /Odtp /RTCsu /ZI
;	COMDAT ??$endl@DU?$char_traits@D@std@@@std@@YAAAV?$basic_ostream@DU?$char_traits@D@std@@@0@AAV10@@Z
_TEXT	SEGMENT
__Ostr$ = 8						; size = 4
??$endl@DU?$char_traits@D@std@@@std@@YAAAV?$basic_ostream@DU?$char_traits@D@std@@@0@AAV10@@Z PROC ; std::endl<char,std::char_traits<char> >, COMDAT
; File C:\Program Files\Microsoft Visual Studio\2022\Community\VC\Tools\MSVC\14.41.34120\include\ostream
; Line 1018
	push	ebp
	mov	ebp, esp
	sub	esp, 192				; 000000c0H
	push	ebx
	push	esi
	push	edi
	mov	edi, ebp
	xor	ecx, ecx
	mov	eax, -858993460				; ccccccccH
	rep stosd
	mov	ecx, OFFSET __4FE742DE_ostream
	call	@__CheckForDebuggerJustMyCode@4
	npad	1
; Line 1019
	mov	esi, esp
	push	10					; 0000000aH
	mov	eax, DWORD PTR __Ostr$[ebp]
	mov	ecx, DWORD PTR [eax]
	mov	edx, DWORD PTR __Ostr$[ebp]
	add	edx, DWORD PTR [ecx+4]
	mov	ecx, edx
	call	DWORD PTR __imp_?widen@?$basic_ios@DU?$char_traits@D@std@@@std@@QBEDD@Z
	cmp	esi, esp
	call	__RTC_CheckEsp
	mov	esi, esp
	movzx	eax, al
	push	eax
	mov	ecx, DWORD PTR __Ostr$[ebp]
	call	DWORD PTR __imp_?put@?$basic_ostream@DU?$char_traits@D@std@@@std@@QAEAAV12@D@Z
	cmp	esi, esp
	call	__RTC_CheckEsp
	npad	1
; Line 1020
	mov	esi, esp
	mov	ecx, DWORD PTR __Ostr$[ebp]
	call	DWORD PTR __imp_?flush@?$basic_ostream@DU?$char_traits@D@std@@@std@@QAEAAV12@XZ
	cmp	esi, esp
	call	__RTC_CheckEsp
	npad	1
; Line 1021
	mov	eax, DWORD PTR __Ostr$[ebp]
; Line 1022
	pop	edi
	pop	esi
	pop	ebx
	add	esp, 192				; 000000c0H
	cmp	ebp, esp
	call	__RTC_CheckEsp
	mov	esp, ebp
	pop	ebp
	ret	0
??$endl@DU?$char_traits@D@std@@@std@@YAAAV?$basic_ostream@DU?$char_traits@D@std@@@0@AAV10@@Z ENDP ; std::endl<char,std::char_traits<char> >
_TEXT	ENDS
; Function compile flags: /Odtp /RTCsu /ZI
;	COMDAT _main
_TEXT	SEGMENT
_main	PROC						; COMDAT
; File C:\Users\Administrator\Desktop\c++code\test24_10_2\Math.cpp
; Line 17
	push	ebp
	mov	ebp, esp
	sub	esp, 192				; 000000c0H
	push	ebx
	push	esi
	push	edi
	mov	edi, ebp
	xor	ecx, ecx
	mov	eax, -858993460				; ccccccccH
	rep stosd
	mov	ecx, OFFSET __7DF6BCF1_Math@cpp
	call	@__CheckForDebuggerJustMyCode@4
	npad	1
; Line 18
	mov	esi, esp
	push	OFFSET ??$endl@DU?$char_traits@D@std@@@std@@YAAAV?$basic_ostream@DU?$char_traits@D@std@@@0@AAV10@@Z ; std::endl<char,std::char_traits<char> >
	push	9
	push	4
	call	?Multiply@@YAHHH@Z			; Multiply
	add	esp, 8
	mov	edi, esp
	push	eax
	mov	ecx, DWORD PTR __imp_?cout@std@@3V?$basic_ostream@DU?$char_traits@D@std@@@1@A
	call	DWORD PTR __imp_??6?$basic_ostream@DU?$char_traits@D@std@@@std@@QAEAAV01@H@Z
	cmp	edi, esp
	call	__RTC_CheckEsp
	mov	ecx, eax
	call	DWORD PTR __imp_??6?$basic_ostream@DU?$char_traits@D@std@@@std@@QAEAAV01@P6AAAV01@AAV01@@Z@Z
	cmp	esi, esp
	call	__RTC_CheckEsp
	npad	1
; Line 19
	mov	esi, esp
	push	2
	mov	ecx, DWORD PTR __imp_?cout@std@@3V?$basic_ostream@DU?$char_traits@D@std@@@1@A
	call	DWORD PTR __imp_??6?$basic_ostream@DU?$char_traits@D@std@@@std@@QAEAAV01@I@Z
	cmp	esi, esp
	call	__RTC_CheckEsp
	npad	1
; Line 21
	mov	esi, esp
	mov	ecx, DWORD PTR __imp_?cin@std@@3V?$basic_istream@DU?$char_traits@D@std@@@1@A
	call	DWORD PTR __imp_?get@?$basic_istream@DU?$char_traits@D@std@@@std@@QAEHXZ
	cmp	esi, esp
	call	__RTC_CheckEsp
	npad	1
; Line 22
	xor	eax, eax
; Line 23
	pop	edi
	pop	esi
	pop	ebx
	add	esp, 192				; 000000c0H
	cmp	ebp, esp
	call	__RTC_CheckEsp
	mov	esp, ebp
	pop	ebp
	ret	0
_main	ENDP
_TEXT	ENDS
; Function compile flags: /Odtp /RTCsu /ZI
;	COMDAT ?Multiply@@YAHHH@Z
_TEXT	SEGMENT
_a$ = 8							; size = 4
_b$ = 12						; size = 4
?Multiply@@YAHHH@Z PROC					; Multiply, COMDAT
; File C:\Users\Administrator\Desktop\c++code\test24_10_2\Math.cpp
; Line 9
	push	ebp
	mov	ebp, esp
	sub	esp, 192				; 000000c0H
	push	ebx
	push	esi
	push	edi
	mov	edi, ebp
	xor	ecx, ecx
	mov	eax, -858993460				; ccccccccH
	rep stosd
	mov	ecx, OFFSET __7DF6BCF1_Math@cpp
	call	@__CheckForDebuggerJustMyCode@4
	npad	1
; Line 10
	push	OFFSET ??_C@_08EOBDLMOI@Multiply@
	call	?log@@YAXPBD@Z				; log
	add	esp, 4
; Line 11
	mov	eax, DWORD PTR _a$[ebp]
	imul	eax, DWORD PTR _b$[ebp]
; Line 12
	pop	edi
	pop	esi
	pop	ebx
	add	esp, 192				; 000000c0H
	cmp	ebp, esp
	call	__RTC_CheckEsp
	mov	esp, ebp
	pop	ebp
	ret	0
?Multiply@@YAHHH@Z ENDP					; Multiply
_TEXT	ENDS
; Function compile flags: /Odtp /RTCsu /ZI
;	COMDAT ?__empty_global_delete@@YAXPAXI@Z
_TEXT	SEGMENT
___formal$ = 8						; size = 4
___formal$ = 12						; size = 4
?__empty_global_delete@@YAXPAXI@Z PROC			; __empty_global_delete, COMDAT
; File C:\Users\Administrator\Desktop\c++code\test24_10_2\Math.cpp
; Line 24
	push	ebp
	mov	ebp, esp
	sub	esp, 192				; 000000c0H
	push	ebx
	push	esi
	push	edi
	mov	edi, ebp
	xor	ecx, ecx
	mov	eax, -858993460				; ccccccccH
	rep stosd
	mov	ecx, OFFSET __7DF6BCF1_Math@cpp
	call	@__CheckForDebuggerJustMyCode@4
	npad	1
	pop	edi
	pop	esi
	pop	ebx
	add	esp, 192				; 000000c0H
	cmp	ebp, esp
	call	__RTC_CheckEsp
	mov	esp, ebp
	pop	ebp
	ret	0
?__empty_global_delete@@YAXPAXI@Z ENDP			; __empty_global_delete
_TEXT	ENDS
; Function compile flags: /Odtp /RTCsu /ZI
;	COMDAT ?__empty_global_delete@@YAXPAX@Z
_TEXT	SEGMENT
___formal$ = 8						; size = 4
?__empty_global_delete@@YAXPAX@Z PROC			; __empty_global_delete, COMDAT
; File C:\Users\Administrator\Desktop\c++code\test24_10_2\Math.cpp
; Line 24
	push	ebp
	mov	ebp, esp
	sub	esp, 192				; 000000c0H
	push	ebx
	push	esi
	push	edi
	mov	edi, ebp
	xor	ecx, ecx
	mov	eax, -858993460				; ccccccccH
	rep stosd
	mov	ecx, OFFSET __7DF6BCF1_Math@cpp
	call	@__CheckForDebuggerJustMyCode@4
	npad	1
	pop	edi
	pop	esi
	pop	ebx
	add	esp, 192				; 000000c0H
	cmp	ebp, esp
	call	__RTC_CheckEsp
	mov	esp, ebp
	pop	ebp
	ret	0
?__empty_global_delete@@YAXPAX@Z ENDP			; __empty_global_delete
_TEXT	ENDS
END
